ccopy_reg
_reconstructor
p1
(cnetworkx.classes.digraph
DiGraph
p2
c__builtin__
object
p3
NtRp4
(dp5
S'node'
p6
(dp7
S'robertdeniro.html'
p8
(dp9
sS'angelinajolie.html'
p10
(dp11
sS'martinscorcese.html'
p12
(dp13
sS'jonvoight.html'
p14
(dp15
sS'bradpitt.html'
p16
(dp17
sS'jenniferaniston.html'
p18
(dp19
ssS'node_dict_factory'
p20
c__builtin__
dict
p21
sS'edge_attr_dict_factory'
p22
g21
sS'succ'
p23
(dp24
g8
(dp25
S'martinscorcese.html'
p26
(dp27
S'weight'
p28
I1
sssg10
(dp29
S'bradpitt.html'
p30
(dp31
g28
I1
ssS'jonvoight.html'
p32
(dp33
g28
I1
sssg12
(dp34
sg14
(dp35
S'bradpitt.html'
p36
(dp37
g28
I1
ssS'angelinajolie.html'
p38
(dp39
g28
I2
sssg16
(dp40
S'jenniferaniston.html'
p41
(dp42
g28
I1
ssS'angelinajolie.html'
p43
(dp44
g28
I2
ssS'martinscorcese.html'
p45
(dp46
g28
I1
sssg18
(dp47
ssS'edge'
p48
g24
sS'graph'
p49
(dp50
sS'adjlist_dict_factory'
p51
g21
sS'adj'
p52
g24
sS'pred'
p53
(dp54
g8
(dp55
sg10
(dp56
g16
g44
sg14
g39
ssg12
(dp57
g8
g27
sg16
g46
ssg14
(dp58
g10
g33
ssg16
(dp59
g10
g31
sg14
g37
ssg18
(dp60
g16
g42
sssb.